target datalayout = "e-m:e-p270:32:32-p271:32:32-p272:64:64-i64:64-i128:128-f80:128-n8:16:32:64-S128"
target triple = "x86_64-pc-linux-gnu"

%"class.net::QuicTime" = type { i64 }
%"class.net::QuicFramer" = type { ptr, %"class.std::__cxx11::basic_string", ptr, ptr, i32, %"class.std::unordered_set", %"class.std::unordered_map", i64, %"class.std::unordered_map", i64, i8, i64, i32, i32, %"class.std::vector", %"class.std::unique_ptr", %"class.std::unique_ptr", i8, i8, i8, [3 x %"class.std::unique_ptr.23"], i32, i8, %"class.net::QuicTime", %"class.net::QuicTime::Delta", %"struct.std::array" }
%"class.std::__cxx11::basic_string" = type { %"struct.std::__cxx11::basic_string<char>::_Alloc_hider", i64, %union.anon }
%"struct.std::__cxx11::basic_string<char>::_Alloc_hider" = type { ptr }
%union.anon = type { i64, [8 x i8] }
%"class.std::unordered_set" = type { %"class.std::_Hashtable" }
%"class.std::_Hashtable" = type { ptr, i64, %"struct.std::__detail::_Hash_node_base", i64, %"struct.std::__detail::_Prime_rehash_policy", ptr }
%"struct.std::__detail::_Hash_node_base" = type { ptr }
%"struct.std::__detail::_Prime_rehash_policy" = type { float, i64 }
%"class.std::unordered_map" = type { %"class.std::_Hashtable.5" }
%"class.std::_Hashtable.5" = type { ptr, i64, %"struct.std::__detail::_Hash_node_base", i64, %"struct.std::__detail::_Prime_rehash_policy", ptr }
%"class.std::vector" = type { %"struct.std::_Vector_base" }
%"struct.std::_Vector_base" = type { %"struct.std::_Vector_base<net::QuicVersion, std::allocator<net::QuicVersion>>::_Vector_impl" }
%"struct.std::_Vector_base<net::QuicVersion, std::allocator<net::QuicVersion>>::_Vector_impl" = type { %"struct.std::_Vector_base<net::QuicVersion, std::allocator<net::QuicVersion>>::_Vector_impl_data" }
%"struct.std::_Vector_base<net::QuicVersion, std::allocator<net::QuicVersion>>::_Vector_impl_data" = type { ptr, ptr, ptr }
%"class.std::unique_ptr" = type { %"struct.std::__uniq_ptr_data" }
%"struct.std::__uniq_ptr_data" = type { %"class.std::__uniq_ptr_impl" }
%"class.std::__uniq_ptr_impl" = type { %"class.std::tuple" }
%"class.std::tuple" = type { %"struct.std::_Tuple_impl" }
%"struct.std::_Tuple_impl" = type { %"struct.std::_Head_base.22" }
%"struct.std::_Head_base.22" = type { ptr }
%"class.std::unique_ptr.23" = type { %"struct.std::__uniq_ptr_data.24" }
%"struct.std::__uniq_ptr_data.24" = type { %"class.std::__uniq_ptr_impl.25" }
%"class.std::__uniq_ptr_impl.25" = type { %"class.std::tuple.26" }
%"class.std::tuple.26" = type { %"struct.std::_Tuple_impl.27" }
%"struct.std::_Tuple_impl.27" = type { %"struct.std::_Head_base.30" }
%"struct.std::_Head_base.30" = type { ptr }
%"class.net::QuicTime::Delta" = type { %"class.base::TimeDelta", i64 }
%"class.base::TimeDelta" = type { i64 }
%"struct.std::array" = type { [32 x i8] }
%"struct.net::QuicFrame" = type { i32, %union.anon.31 }
%union.anon.31 = type { ptr }
%"struct.net::QuicStreamFrame" = type { i32, i8, i16, ptr, i64, %"class.std::unique_ptr.40" }
%"class.std::unique_ptr.40" = type { %"struct.std::__uniq_ptr_data.41" }
%"struct.std::__uniq_ptr_data.41" = type { %"class.std::__uniq_ptr_impl.42" }
%"class.std::__uniq_ptr_impl.42" = type { %"class.std::tuple.43" }
%"class.std::tuple.43" = type { %"struct.std::_Tuple_impl.44" }
%"struct.std::_Tuple_impl.44" = type { %"struct.std::_Tuple_impl.45", %"struct.std::_Head_base.47" }
%"struct.std::_Tuple_impl.45" = type { %"struct.std::_Head_base.46" }
%"struct.std::_Head_base.46" = type { %"class.net::StreamBufferDeleter" }
%"class.net::StreamBufferDeleter" = type { ptr }
%"struct.std::_Head_base.47" = type { ptr }
%"struct.net::QuicConnectionCloseFrame" = type { i32, %"class.std::__cxx11::basic_string" }
%"struct.net::QuicGoAwayFrame" = type { i32, i32, %"class.std::__cxx11::basic_string" }

; Function Attrs: mustprogress nounwind uwtable
define noundef i64 @_ZN3net10QuicFramer21GetPathCloseFrameSizeEv() #1 align 2 {
  ret i64 2
}

; Function Attrs: mustprogress nounwind uwtable
define noundef i64 @_ZN3net10QuicFramer19GetBlockedFrameSizeEv() #1 align 2 {
  ret i64 5
}

; Function Attrs: mustprogress nounwind uwtable
define noundef i64 @_ZN3net10QuicFramer24GetWindowUpdateFrameSizeEv() #1 align 2 {
  ret i64 13
}

; Function Attrs: mustprogress nounwind uwtable
define noundef i64 @_ZN3net10QuicFramer21GetMinGoAwayFrameSizeEv() #1 align 2 {
  ret i64 11
}

; Function Attrs: mustprogress nounwind uwtable
define available_externally noundef i64 @_ZNKSt7__cxx1112basic_stringIcSt11char_traitsIcESaIcEE4sizeEv(ptr noundef nonnull align 8 dereferenceable(32) %0) #1 align 2 {
  %2 = alloca ptr, align 8
  store ptr %0, ptr %2, align 8, !tbaa !66
  %3 = load ptr, ptr %2, align 8
  %4 = getelementptr inbounds nuw %"class.std::__cxx11::basic_string", ptr %3, i32 0, i32 1
  %5 = load i64, ptr %4, align 8, !tbaa !368
  ret i64 %5
}

; Function Attrs: mustprogress nounwind uwtable
define noundef i64 @_ZN3net10QuicFramer30GetMinConnectionCloseFrameSizeEv() #1 align 2 {
  ret i64 7
}

; Function Attrs: mustprogress nounwind uwtable
define noundef i64 @_ZN3net10QuicFramer21GetRstStreamFrameSizeEv() #1 align 2 {
  ret i64 17
}

; Function Attrs: mustprogress nounwind uwtable
define noundef i64 @_ZN3net10QuicFramer23GetStopWaitingFrameSizeENS_11QuicVersionENS_22QuicPacketNumberLengthE(i32 noundef %0, i8 noundef signext %1) #1 align 2 {
  %3 = alloca i64, align 8
  %4 = alloca i32, align 4
  %5 = alloca i8, align 1
  %6 = alloca i64, align 8
  %7 = alloca i32, align 4
  store i32 %0, ptr %4, align 4, !tbaa !64
  store i8 %1, ptr %5, align 1, !tbaa !92
  call void @llvm.lifetime.start.p0(i64 8, ptr %6) #17
  %8 = load i8, ptr %5, align 1, !tbaa !92
  %9 = sext i8 %8 to i64
  %10 = add i64 1, %9
  store i64 %10, ptr %6, align 8, !tbaa !63
  %11 = load i32, ptr %4, align 4, !tbaa !64
  %12 = icmp sle i32 %11, 33
  br i1 %12, label %13, label %16

13:                                               ; preds = %2
  %14 = load i64, ptr %6, align 8, !tbaa !63
  %15 = add i64 %14, 1
  store i64 %15, ptr %3, align 8
  store i32 1, ptr %7, align 4
  br label %18

16:                                               ; preds = %2
  %17 = load i64, ptr %6, align 8, !tbaa !63
  store i64 %17, ptr %3, align 8
  store i32 1, ptr %7, align 4
  br label %18

18:                                               ; preds = %16, %13
  call void @llvm.lifetime.end.p0(i64 8, ptr %6) #17
  %19 = load i64, ptr %3, align 8
  ret i64 %19
}

; Function Attrs: mustprogress uwtable
define noundef i64 @_ZN3net10QuicFramer18ComputeFrameLengthERKNS_9QuicFrameEbNS_22QuicPacketNumberLengthE(ptr noundef nonnull align 8 dereferenceable(408) %0, ptr noundef nonnull align 8 dereferenceable(16) %1, i1 noundef zeroext %2, i8 noundef signext %3) #0 align 2 {
  %5 = alloca i64, align 8
  %6 = alloca ptr, align 8
  %7 = alloca ptr, align 8
  %8 = alloca i8, align 1
  %9 = alloca i8, align 1
  store ptr %0, ptr %6, align 8, !tbaa !3
  store ptr %1, ptr %7, align 8, !tbaa !102
  %10 = zext i1 %2 to i8
  store i8 %10, ptr %8, align 1, !tbaa !86
  store i8 %3, ptr %9, align 1, !tbaa !92
  %11 = load ptr, ptr %6, align 8
  %12 = load ptr, ptr %7, align 8, !tbaa !102
  %13 = getelementptr inbounds nuw %"struct.net::QuicFrame", ptr %12, i32 0, i32 0
  %14 = load i32, ptr %13, align 8, !tbaa !104
  switch i32 %14, label %74 [
    i32 9, label %15
    i32 10, label %36
    i32 6, label %42
    i32 11, label %47
    i32 7, label %47
    i32 1, label %48
    i32 2, label %50
    i32 3, label %58
    i32 4, label %66
    i32 5, label %68
    i32 8, label %70
    i32 0, label %72
    i32 12, label %73
  ]

15:                                               ; preds = %4
  %16 = load ptr, ptr %7, align 8, !tbaa !102
  %17 = getelementptr inbounds nuw %"struct.net::QuicFrame", ptr %16, i32 0, i32 1
  %18 = load ptr, ptr %17, align 8, !tbaa !107
  %19 = getelementptr inbounds nuw %"struct.net::QuicStreamFrame", ptr %18, i32 0, i32 0
  %20 = load i32, ptr %19, align 8, !tbaa !109
  %21 = load ptr, ptr %7, align 8, !tbaa !102
  %22 = getelementptr inbounds nuw %"struct.net::QuicFrame", ptr %21, i32 0, i32 1
  %23 = load ptr, ptr %22, align 8, !tbaa !107
  %24 = getelementptr inbounds nuw %"struct.net::QuicStreamFrame", ptr %23, i32 0, i32 4
  %25 = load i64, ptr %24, align 8, !tbaa !122
  %26 = load i8, ptr %8, align 1, !tbaa !86, !range !87, !noundef !88
  %27 = trunc i8 %26 to i1
  %28 = call noundef i64 @_ZN3net10QuicFramer21GetMinStreamFrameSizeEjmb(i32 noundef %20, i64 noundef %25, i1 noundef zeroext %27)
  %29 = load ptr, ptr %7, align 8, !tbaa !102
  %30 = getelementptr inbounds nuw %"struct.net::QuicFrame", ptr %29, i32 0, i32 1
  %31 = load ptr, ptr %30, align 8, !tbaa !107
  %32 = getelementptr inbounds nuw %"struct.net::QuicStreamFrame", ptr %31, i32 0, i32 2
  %33 = load i16, ptr %32, align 2, !tbaa !123
  %34 = zext i16 %33 to i64
  %35 = add i64 %28, %34
  store i64 %35, ptr %5, align 8
  br label %75

36:                                               ; preds = %4
  %37 = load ptr, ptr %7, align 8, !tbaa !102
  %38 = getelementptr inbounds nuw %"struct.net::QuicFrame", ptr %37, i32 0, i32 1
  %39 = load ptr, ptr %38, align 8, !tbaa !107
  %40 = load i8, ptr %9, align 1, !tbaa !92
  %41 = call noundef i64 @_ZN3net10QuicFramer15GetAckFrameSizeERKNS_12QuicAckFrameENS_22QuicPacketNumberLengthE(ptr noundef nonnull align 8 dereferenceable(408) %11, ptr noundef nonnull align 8 dereferenceable(100) %39, i8 noundef signext %40)
  store i64 %41, ptr %5, align 8
  br label %75

42:                                               ; preds = %4
  %43 = getelementptr inbounds nuw %"class.net::QuicFramer", ptr %11, i32 0, i32 13
  %44 = load i32, ptr %43, align 4, !tbaa !65
  %45 = load i8, ptr %9, align 1, !tbaa !92
  %46 = call noundef i64 @_ZN3net10QuicFramer23GetStopWaitingFrameSizeENS_11QuicVersionENS_22QuicPacketNumberLengthE(i32 noundef %44, i8 noundef signext %45)
  store i64 %46, ptr %5, align 8
  br label %75

47:                                               ; preds = %4, %4
  store i64 1, ptr %5, align 8
  br label %75

48:                                               ; preds = %4
  %49 = call noundef i64 @_ZN3net10QuicFramer21GetRstStreamFrameSizeEv()
  store i64 %49, ptr %5, align 8
  br label %75

50:                                               ; preds = %4
  %51 = call noundef i64 @_ZN3net10QuicFramer30GetMinConnectionCloseFrameSizeEv()
  %52 = load ptr, ptr %7, align 8, !tbaa !102
  %53 = getelementptr inbounds nuw %"struct.net::QuicFrame", ptr %52, i32 0, i32 1
  %54 = load ptr, ptr %53, align 8, !tbaa !107
  %55 = getelementptr inbounds nuw %"struct.net::QuicConnectionCloseFrame", ptr %54, i32 0, i32 1
  %56 = call noundef i64 @_ZNKSt7__cxx1112basic_stringIcSt11char_traitsIcESaIcEE4sizeEv(ptr noundef nonnull align 8 dereferenceable(32) %55) #17
  %57 = add i64 %51, %56
  store i64 %57, ptr %5, align 8
  br label %75

58:                                               ; preds = %4
  %59 = call noundef i64 @_ZN3net10QuicFramer21GetMinGoAwayFrameSizeEv()
  %60 = load ptr, ptr %7, align 8, !tbaa !102
  %61 = getelementptr inbounds nuw %"struct.net::QuicFrame", ptr %60, i32 0, i32 1
  %62 = load ptr, ptr %61, align 8, !tbaa !107
  %63 = getelementptr inbounds nuw %"struct.net::QuicGoAwayFrame", ptr %62, i32 0, i32 2
  %64 = call noundef i64 @_ZNKSt7__cxx1112basic_stringIcSt11char_traitsIcESaIcEE4sizeEv(ptr noundef nonnull align 8 dereferenceable(32) %63) #17
  %65 = add i64 %59, %64
  store i64 %65, ptr %5, align 8
  br label %75

66:                                               ; preds = %4
  %67 = call noundef i64 @_ZN3net10QuicFramer24GetWindowUpdateFrameSizeEv()
  store i64 %67, ptr %5, align 8
  br label %75

68:                                               ; preds = %4
  %69 = call noundef i64 @_ZN3net10QuicFramer19GetBlockedFrameSizeEv()
  store i64 %69, ptr %5, align 8
  br label %75

70:                                               ; preds = %4
  %71 = call noundef i64 @_ZN3net10QuicFramer21GetPathCloseFrameSizeEv()
  store i64 %71, ptr %5, align 8
  br label %75

72:                                               ; preds = %4
  store i64 0, ptr %5, align 8
  br label %75

73:                                               ; preds = %4
  store i64 0, ptr %5, align 8
  br label %75

74:                                               ; preds = %4
  store i64 0, ptr %5, align 8
  br label %75

75:                                               ; preds = %74, %73, %72, %70, %68, %66, %58, %50, %48, %47, %42, %36, %15
  %76 = load i64, ptr %5, align 8
  ret i64 %76
}