; Function Attrs: mustprogress uwtable
define noundef i64 @_ZN3net10QuicFramer18ComputeFrameLengthERKNS_9QuicFrameEbNS_22QuicPacketNumberLengthE(ptr noundef nonnull readonly align 8 captures(none) dereferenceable(408) %0, ptr noundef nonnull readonly align 8 captures(none) dereferenceable(16) %1, i1 noundef zeroext %2, i8 noundef signext %3) local_unnamed_addr #0 align 2 {
  %5 = load i32, ptr %1, align 8, !tbaa !80
  switch i32 %5, label %43 [
    i32 9, label %6
    i32 10, label %18
    i32 6, label %22
    i32 11, label %44
    i32 7, label %44
    i32 1, label %27
    i32 2, label %28
    i32 3, label %34
    i32 4, label %40
    i32 5, label %41
    i32 8, label %42
  ]

6:                                                ; preds = %4
  %7 = getelementptr inbounds nuw i8, ptr %1, i64 8
  %8 = load ptr, ptr %7, align 8, !tbaa !14
  %9 = load i32, ptr %8, align 8, !tbaa !94
  %10 = getelementptr inbounds nuw i8, ptr %8, i64 16
  %11 = load i64, ptr %10, align 8, !tbaa !107
  %12 = tail call noundef i64 @_ZN3net10QuicFramer21GetMinStreamFrameSizeEjmb(i32 noundef %9, i64 noundef %11, i1 noundef zeroext %2)
  %13 = load ptr, ptr %7, align 8, !tbaa !14
  %14 = getelementptr inbounds nuw i8, ptr %13, i64 6
  %15 = load i16, ptr %14, align 2, !tbaa !108
  %16 = zext i16 %15 to i64
  %17 = add i64 %12, %16
  br label %44

18:                                               ; preds = %4
  %19 = getelementptr inbounds nuw i8, ptr %1, i64 8
  %20 = load ptr, ptr %19, align 8, !tbaa !14
  %21 = tail call noundef i64 @_ZN3net10QuicFramer15GetAckFrameSizeERKNS_12QuicAckFrameENS_22QuicPacketNumberLengthE(ptr noundef nonnull align 8 dereferenceable(408) %0, ptr noundef nonnull align 8 dereferenceable(100) %20, i8 signext poison)
  br label %44

22:                                               ; preds = %4
  %23 = getelementptr inbounds nuw i8, ptr %0, i64 268
  %24 = load i32, ptr %23, align 4, !tbaa !67
  %25 = sext i8 %3 to i64
  %26 = icmp slt i32 %24, 34
  %.0.v.i = select i1 %26, i64 2, i64 1
  %.0.i = add nsw i64 %.0.v.i, %25
  br label %44

27:                                               ; preds = %4
  br label %44

28:                                               ; preds = %4
  %29 = getelementptr inbounds nuw i8, ptr %1, i64 8
  %30 = load ptr, ptr %29, align 8, !tbaa !14
  %31 = getelementptr inbounds nuw i8, ptr %30, i64 16
  %32 = load i64, ptr %31, align 8, !tbaa !11
  %33 = add i64 %32, 7
  br label %44

34:                                               ; preds = %4
  %35 = getelementptr inbounds nuw i8, ptr %1, i64 8
  %36 = load ptr, ptr %35, align 8, !tbaa !14
  %37 = getelementptr inbounds nuw i8, ptr %36, i64 16
  %38 = load i64, ptr %37, align 8, !tbaa !11
  %39 = add i64 %38, 11
  br label %44

40:                                               ; preds = %4
  br label %44

41:                                               ; preds = %4
  br label %44

42:                                               ; preds = %4
  br label %44

43:                                               ; preds = %4
  br label %44

44:                                               ; preds = %4, %4, %43, %42, %41, %40, %34, %28, %27, %22, %18, %6
  %.0 = phi i64 [ 0, %43 ], [ 2, %42 ], [ 5, %41 ], [ 13, %40 ], [ %39, %34 ], [ %33, %28 ], [ 17, %27 ], [ %.0.i, %22 ], [ %21, %18 ], [ %17, %6 ], [ 1, %4 ], [ 1, %4 ]
  ret i64 %.0
}